target datalayout = "e-m:e-p270:32:32-p271:32:32-p272:64:64-i64:64-i128:128-f80:128-n8:16:32:64-S128"
target triple = "x86_64-unknown-linux-gnu"

%struct.mz_stream_s = type { ptr, i32, i64, ptr, i32, i64, ptr, ptr, ptr, ptr, ptr, i32, i64, i64 }
%struct.inflate_state = type { %struct.tinfl_decompressor_tag, i32, i32, i32, i32, i32, [32768 x i8], i32 }
%struct.tinfl_decompressor_tag = type { i32, i32, i32, i32, i32, i32, i32, i32, i32, i32, i32, [3 x i32], i64, i64, [3 x %struct.tinfl_huff_table], [4 x i8], [457 x i8] }
%struct.tinfl_huff_table = type { [288 x i8], [1024 x i16], [576 x i16] }

; Function Attrs: nounwind uwtable
define hidden i32 @mz_inflateInit2(ptr noundef %pStream, i32 noundef %window_bits) #0 {
entry:
  %retval = alloca i32, align 4
  %pStream.addr = alloca ptr, align 8
  %window_bits.addr = alloca i32, align 4
  %pDecomp = alloca ptr, align 8
  store ptr %pStream, ptr %pStream.addr, align 8
  store i32 %window_bits, ptr %window_bits.addr, align 4
  %0 = load ptr, ptr %pStream.addr, align 8
  %tobool = icmp ne ptr %0, null
  br i1 %tobool, label %if.end, label %if.then

if.then:                                          ; preds = %entry
  store i32 -2, ptr %retval, align 4
  br label %return

if.end:                                           ; preds = %entry
  %1 = load i32, ptr %window_bits.addr, align 4
  %cmp = icmp ne i32 %1, 15
  br i1 %cmp, label %land.lhs.true, label %if.end3

land.lhs.true:                                    ; preds = %if.end
  %2 = load i32, ptr %window_bits.addr, align 4
  %sub = sub nsw i32 0, %2
  %cmp1 = icmp ne i32 %sub, 15
  br i1 %cmp1, label %if.then2, label %if.end3

if.then2:                                         ; preds = %land.lhs.true
  store i32 -10000, ptr %retval, align 4
  br label %return

if.end3:                                          ; preds = %land.lhs.true, %if.end
  %3 = load ptr, ptr %pStream.addr, align 8
  %data_type = getelementptr inbounds %struct.mz_stream_s, ptr %3, i32 0, i32 11
  store i32 0, ptr %data_type, align 8
  %4 = load ptr, ptr %pStream.addr, align 8
  %adler = getelementptr inbounds %struct.mz_stream_s, ptr %4, i32 0, i32 12
  store i64 0, ptr %adler, align 8
  %5 = load ptr, ptr %pStream.addr, align 8
  %msg = getelementptr inbounds %struct.mz_stream_s, ptr %5, i32 0, i32 6
  store ptr null, ptr %msg, align 8
  %6 = load ptr, ptr %pStream.addr, align 8
  %total_in = getelementptr inbounds %struct.mz_stream_s, ptr %6, i32 0, i32 2
  store i64 0, ptr %total_in, align 8
  %7 = load ptr, ptr %pStream.addr, align 8
  %total_out = getelementptr inbounds %struct.mz_stream_s, ptr %7, i32 0, i32 5
  store i64 0, ptr %total_out, align 8
  %8 = load ptr, ptr %pStream.addr, align 8
  %reserved = getelementptr inbounds %struct.mz_stream_s, ptr %8, i32 0, i32 13
  store i64 0, ptr %reserved, align 8
  %9 = load ptr, ptr %pStream.addr, align 8
  %zalloc = getelementptr inbounds %struct.mz_stream_s, ptr %9, i32 0, i32 8
  %10 = load ptr, ptr %zalloc, align 8
  %tobool4 = icmp ne ptr %10, null
  br i1 %tobool4, label %if.end7, label %if.then5

if.then5:                                         ; preds = %if.end3
  %11 = load ptr, ptr %pStream.addr, align 8
  %zalloc6 = getelementptr inbounds %struct.mz_stream_s, ptr %11, i32 0, i32 8
  store ptr @def_alloc_func, ptr %zalloc6, align 8
  br label %if.end7

if.end7:                                          ; preds = %if.then5, %if.end3
  %12 = load ptr, ptr %pStream.addr, align 8
  %zfree = getelementptr inbounds %struct.mz_stream_s, ptr %12, i32 0, i32 9
  %13 = load ptr, ptr %zfree, align 8
  %tobool8 = icmp ne ptr %13, null
  br i1 %tobool8, label %if.end11, label %if.then9

if.then9:                                         ; preds = %if.end7
  %14 = load ptr, ptr %pStream.addr, align 8
  %zfree10 = getelementptr inbounds %struct.mz_stream_s, ptr %14, i32 0, i32 9
  store ptr @def_free_func, ptr %zfree10, align 8
  br label %if.end11

if.end11:                                         ; preds = %if.then9, %if.end7
  %15 = load ptr, ptr %pStream.addr, align 8
  %zalloc12 = getelementptr inbounds %struct.mz_stream_s, ptr %15, i32 0, i32 8
  %16 = load ptr, ptr %zalloc12, align 8
  %17 = load ptr, ptr %pStream.addr, align 8
  %opaque = getelementptr inbounds %struct.mz_stream_s, ptr %17, i32 0, i32 10
  %18 = load ptr, ptr %opaque, align 8
  %call = call ptr %16(ptr noundef %18, i64 noundef 1, i64 noundef 43792)
  store ptr %call, ptr %pDecomp, align 8
  %19 = load ptr, ptr %pDecomp, align 8
  %tobool13 = icmp ne ptr %19, null
  br i1 %tobool13, label %if.end15, label %if.then14

if.then14:                                        ; preds = %if.end11
  store i32 -4, ptr %retval, align 4
  br label %return

if.end15:                                         ; preds = %if.end11
  %20 = load ptr, ptr %pDecomp, align 8
  %21 = load ptr, ptr %pStream.addr, align 8
  %state = getelementptr inbounds %struct.mz_stream_s, ptr %21, i32 0, i32 7
  store ptr %20, ptr %state, align 8
  br label %do.body

do.body:                                          ; preds = %if.end15
  %22 = load ptr, ptr %pDecomp, align 8
  %m_decomp = getelementptr inbounds %struct.inflate_state, ptr %22, i32 0, i32 0
  %m_state = getelementptr inbounds %struct.tinfl_decompressor_tag, ptr %m_decomp, i32 0, i32 0
  store i32 0, ptr %m_state, align 8
  br label %do.end

do.end:                                           ; preds = %do.body
  %23 = load ptr, ptr %pDecomp, align 8
  %m_dict_ofs = getelementptr inbounds %struct.inflate_state, ptr %23, i32 0, i32 1
  store i32 0, ptr %m_dict_ofs, align 8
  %24 = load ptr, ptr %pDecomp, align 8
  %m_dict_avail = getelementptr inbounds %struct.inflate_state, ptr %24, i32 0, i32 2
  store i32 0, ptr %m_dict_avail, align 4
  %25 = load ptr, ptr %pDecomp, align 8
  %m_last_status = getelementptr inbounds %struct.inflate_state, ptr %25, i32 0, i32 7
  store i32 1, ptr %m_last_status, align 4
  %26 = load ptr, ptr %pDecomp, align 8
  %m_first_call = getelementptr inbounds %struct.inflate_state, ptr %26, i32 0, i32 3
  store i32 1, ptr %m_first_call, align 8
  %27 = load ptr, ptr %pDecomp, align 8
  %m_has_flushed = getelementptr inbounds %struct.inflate_state, ptr %27, i32 0, i32 4
  store i32 0, ptr %m_has_flushed, align 4
  %28 = load i32, ptr %window_bits.addr, align 4
  %29 = load ptr, ptr %pDecomp, align 8
  %m_window_bits = getelementptr inbounds %struct.inflate_state, ptr %29, i32 0, i32 5
  store i32 %28, ptr %m_window_bits, align 8
  store i32 0, ptr %retval, align 4
  br label %return

return:                                           ; preds = %do.end, %if.then14, %if.then2, %if.then
  %30 = load i32, ptr %retval, align 4
  ret i32 %30
}