; Function Attrs: nounwind uwtable
define hidden range(i32 -10000, 1) i32 @mz_inflateInit2(ptr noundef %pStream, i32 noundef %window_bits) local_unnamed_addr #4 {
entry:
  %tobool.not = icmp eq ptr %pStream, null
  br i1 %tobool.not, label %return, label %if.end

if.end:                                           ; preds = %entry
  switch i32 %window_bits, label %return [
    i32 15, label %if.end3
    i32 -15, label %if.end3
  ]

if.end3:                                          ; preds = %if.end, %if.end
  %data_type = getelementptr inbounds nuw i8, ptr %pStream, i64 88
  store i32 0, ptr %data_type, align 8
  %adler = getelementptr inbounds nuw i8, ptr %pStream, i64 96
  %total_in = getelementptr inbounds nuw i8, ptr %pStream, i64 16
  store i64 0, ptr %total_in, align 8
  %total_out = getelementptr inbounds nuw i8, ptr %pStream, i64 40
  %zalloc = getelementptr inbounds nuw i8, ptr %pStream, i64 64
  tail call void @llvm.memset.p0.i64(ptr noundef nonnull align 8 dereferenceable(16) %total_out, i8 0, i64 16, i1 false)
  tail call void @llvm.memset.p0.i64(ptr noundef nonnull align 8 dereferenceable(16) %adler, i8 0, i64 16, i1 false)
  %0 = load ptr, ptr %zalloc, align 8
  %tobool4.not = icmp eq ptr %0, null
  br i1 %tobool4.not, label %if.then5, label %if.end7

if.then5:                                         ; preds = %if.end3
  store ptr @def_alloc_func, ptr %zalloc, align 8
  br label %if.end7

if.end7:                                          ; preds = %if.then5, %if.end3
  %1 = phi ptr [ @def_alloc_func, %if.then5 ], [ %0, %if.end3 ]
  %zfree = getelementptr inbounds nuw i8, ptr %pStream, i64 72
  %2 = load ptr, ptr %zfree, align 8
  %tobool8.not = icmp eq ptr %2, null
  br i1 %tobool8.not, label %if.then9, label %if.end11

if.then9:                                         ; preds = %if.end7
  store ptr @def_free_func, ptr %zfree, align 8
  br label %if.end11

if.end11:                                         ; preds = %if.then9, %if.end7
  %opaque = getelementptr inbounds nuw i8, ptr %pStream, i64 80
  %3 = load ptr, ptr %opaque, align 8
  %call = tail call ptr %1(ptr noundef %3, i64 noundef 1, i64 noundef 43792) #30
  %tobool13.not = icmp eq ptr %call, null
  br i1 %tobool13.not, label %return, label %if.end15

if.end15:                                         ; preds = %if.end11
  %state = getelementptr inbounds nuw i8, ptr %pStream, i64 56
  store ptr %call, ptr %state, align 8
  store i32 0, ptr %call, align 8
  %m_dict_ofs = getelementptr inbounds nuw i8, ptr %call, i64 11000
  store i32 0, ptr %m_dict_ofs, align 8
  %m_dict_avail = getelementptr inbounds nuw i8, ptr %call, i64 11004
  store i32 0, ptr %m_dict_avail, align 4
  %m_last_status = getelementptr inbounds nuw i8, ptr %call, i64 43788
  store i32 1, ptr %m_last_status, align 4
  %m_first_call = getelementptr inbounds nuw i8, ptr %call, i64 11008
  store i32 1, ptr %m_first_call, align 8
  %m_has_flushed = getelementptr inbounds nuw i8, ptr %call, i64 11012
  store i32 0, ptr %m_has_flushed, align 4
  %m_window_bits = getelementptr inbounds nuw i8, ptr %call, i64 11016
  store i32 %window_bits, ptr %m_window_bits, align 8
  br label %return

return:                                           ; preds = %if.end11, %if.end, %entry, %if.end15
  %retval.0 = phi i32 [ 0, %if.end15 ], [ -2, %entry ], [ -10000, %if.end ], [ -4, %if.end11 ]
  ret i32 %retval.0
}